target datalayout = "e-m:e-p270:32:32-p271:32:32-p272:64:64-i64:64-i128:128-f80:128-n8:16:32:64-S128"
target triple = "x86_64-pc-linux-gnu"

%struct.H5B2_class_t = type { i32, ptr, i64, ptr, ptr, ptr, ptr, ptr, ptr, ptr }

@stderr = external global ptr, align 8
@H5D_BT2 = external constant [1 x %struct.H5B2_class_t], align 16
@H5D_BT2_FILT = external constant [1 x %struct.H5B2_class_t], align 16
@H5B2_TEST = external constant [1 x %struct.H5B2_class_t], align 16
@H5HF_HUGE_BT2_INDIR = external constant [1 x %struct.H5B2_class_t], align 16
@H5HF_HUGE_BT2_FILT_INDIR = external constant [1 x %struct.H5B2_class_t], align 16
@H5HF_HUGE_BT2_DIR = external constant [1 x %struct.H5B2_class_t], align 16
@H5HF_HUGE_BT2_FILT_DIR = external constant [1 x %struct.H5B2_class_t], align 16
@H5G_BT2_NAME = external constant [1 x %struct.H5B2_class_t], align 16
@H5G_BT2_CORDER = external constant [1 x %struct.H5B2_class_t], align 16
@H5SM_INDEX = external constant [1 x %struct.H5B2_class_t], align 16
@H5A_BT2_NAME = external constant [1 x %struct.H5B2_class_t], align 16
@H5A_BT2_CORDER = external constant [1 x %struct.H5B2_class_t], align 16
@H5B2_TEST2 = external constant [1 x %struct.H5B2_class_t], align 16
@.str.94 = private unnamed_addr constant [30 x i8] c"Unknown v2 B-tree subtype %u\0A\00", align 1

; Function Attrs: nounwind uwtable
define internal ptr @get_H5B2_class(ptr noundef %0) #0 {
  %2 = alloca ptr, align 8
  %3 = alloca i32, align 4
  %4 = alloca ptr, align 8
  store ptr %0, ptr %2, align 8, !tbaa !18
  call void @llvm.lifetime.start.p0(i64 4, ptr %3) #7
  %5 = load ptr, ptr %2, align 8, !tbaa !18
  %6 = getelementptr inbounds i8, ptr %5, i64 5
  %7 = load i8, ptr %6, align 1, !tbaa !26
  %8 = zext i8 %7 to i32
  store i32 %8, ptr %3, align 4, !tbaa !4
  call void @llvm.lifetime.start.p0(i64 8, ptr %4) #7
  store ptr null, ptr %4, align 8, !tbaa !29
  %9 = load i32, ptr %3, align 4, !tbaa !4
  switch i32 %9, label %24 [
    i32 0, label %10
    i32 1, label %11
    i32 2, label %12
    i32 3, label %13
    i32 4, label %14
    i32 5, label %15
    i32 6, label %16
    i32 7, label %17
    i32 8, label %18
    i32 9, label %19
    i32 10, label %20
    i32 11, label %21
    i32 12, label %22
    i32 13, label %23
  ]

10:                                               ; preds = %1
  store ptr @H5B2_TEST, ptr %4, align 8, !tbaa !29
  br label %28

11:                                               ; preds = %1
  store ptr @H5HF_HUGE_BT2_INDIR, ptr %4, align 8, !tbaa !29
  br label %28

12:                                               ; preds = %1
  store ptr @H5HF_HUGE_BT2_FILT_INDIR, ptr %4, align 8, !tbaa !29
  br label %28

13:                                               ; preds = %1
  store ptr @H5HF_HUGE_BT2_DIR, ptr %4, align 8, !tbaa !29
  br label %28

14:                                               ; preds = %1
  store ptr @H5HF_HUGE_BT2_FILT_DIR, ptr %4, align 8, !tbaa !29
  br label %28

15:                                               ; preds = %1
  store ptr @H5G_BT2_NAME, ptr %4, align 8, !tbaa !29
  br label %28

16:                                               ; preds = %1
  store ptr @H5G_BT2_CORDER, ptr %4, align 8, !tbaa !29
  br label %28

17:                                               ; preds = %1
  store ptr @H5SM_INDEX, ptr %4, align 8, !tbaa !29
  br label %28

18:                                               ; preds = %1
  store ptr @H5A_BT2_NAME, ptr %4, align 8, !tbaa !29
  br label %28

19:                                               ; preds = %1
  store ptr @H5A_BT2_CORDER, ptr %4, align 8, !tbaa !29
  br label %28

20:                                               ; preds = %1
  store ptr @H5D_BT2, ptr %4, align 8, !tbaa !29
  br label %28

21:                                               ; preds = %1
  store ptr @H5D_BT2_FILT, ptr %4, align 8, !tbaa !29
  br label %28

22:                                               ; preds = %1
  store ptr @H5B2_TEST2, ptr %4, align 8, !tbaa !29
  br label %28

23:                                               ; preds = %1
  br label %24

24:                                               ; preds = %1, %23
  %25 = load ptr, ptr @stderr, align 8, !tbaa !16
  %26 = load i32, ptr %3, align 4, !tbaa !4
  %27 = call i32 (ptr, ptr, ...) @fprintf(ptr noundef %25, ptr noundef @.str.94, i32 noundef %26) #7
  br label %28

28:                                               ; preds = %24, %22, %21, %20, %19, %18, %17, %16, %15, %14, %13, %12, %11, %10
  %29 = load ptr, ptr %4, align 8, !tbaa !29
  call void @llvm.lifetime.end.p0(i64 8, ptr %4) #7
  call void @llvm.lifetime.end.p0(i64 4, ptr %3) #7
  ret ptr %29
}